target datalayout = "e-m:e-p270:32:32-p271:32:32-p272:64:64-i64:64-i128:128-f80:128-n8:16:32:64-S128"
target triple = "x86_64-unknown-linux-gnu"

%class.symbol = type { ptr }
%"class.opt::context::scoped_state" = type { ptr, %class.arith_util, %class.bv_util, %class.svector, %class.svector, %class.svector, %class.svector, %class.svector, %class.map, %class.ref_vector, %class.ref_vector, %class.vector.1 }
%class.arith_util = type { ptr, ptr }
%class.bv_util = type { %class.bv_recognizers, ptr, ptr }
%class.bv_recognizers = type { i32 }
%class.svector = type { %class.vector }
%class.vector = type { ptr }
%class.map = type { %class.table2map }
%class.table2map = type { %class.core_hashtable }
%class.core_hashtable = type <{ ptr, i32, i32, i32, [4 x i8] }>
%class.ref_vector = type { %class.ref_vector_core }
%class.ref_vector_core = type { %class.ref_manager_wrapper, %class.ptr_vector }
%class.ref_manager_wrapper = type { ptr }
%class.ptr_vector = type { %class.vector.0 }
%class.vector.0 = type { ptr }
%class.vector.1 = type { ptr }
%class.obj_ref = type { ptr, ptr }
%"class.std::__cxx11::basic_string" = type { %"struct.std::__cxx11::basic_string<char>::_Alloc_hider", i64, %union.anon }
%"struct.std::__cxx11::basic_string<char>::_Alloc_hider" = type { ptr }
%union.anon = type { i64, [8 x i8] }
%class.params_ref = type { ptr }
%"class.opt::context" = type { %class.opt_wrapper, %"class.opt::pareto_callback", %"class.opt::maxsat_context", double, %"struct.opt::on_model_t", %"class.std::function", i8, %class.arith_util, %class.bv_util, %class.ref_vector, %class.ref.34, %class.ref.35, %class.ref.35, %class.scoped_ptr, i8, %class.scoped_ptr.36, %class.ref_vector_core.37, i32, %class.params_ref, %"class.opt::optsmt", %class.map.47, %"class.opt::context::scoped_state", %class.vector.1, %class.ref.46, %class.ref, %class.ref.51, %class.ref_vector_core.37, i32, [4 x i8], %class.obj_map.52, %class.obj_map.57, %class.ref_vector.62, %class.ref_vector, %class.ref.67, i8, i8, i8, i8, i8, i8, %class.symbol, %class.symbol, %class.svector.12, %"class.std::__cxx11::basic_string" }
%class.opt_wrapper = type { %class.check_sat_result }
%class.check_sat_result = type { ptr, ptr, %class.ref_vector, %class.obj_ref, i32, i32, %class.ref, double }
%"class.opt::pareto_callback" = type { ptr }
%"class.opt::maxsat_context" = type { ptr }
%"struct.opt::on_model_t" = type { ptr, ptr, ptr, ptr }
%"class.std::function" = type { %"class.std::_Function_base", ptr }
%"class.std::_Function_base" = type { %"union.std::_Any_data", ptr }
%"union.std::_Any_data" = type { %"union.std::_Nocopy_types" }
%"union.std::_Nocopy_types" = type { { i64, i64 } }
%class.ref.34 = type { ptr }
%class.ref.35 = type { ptr }
%class.scoped_ptr = type { ptr }
%class.scoped_ptr.36 = type { ptr }
%"class.opt::optsmt" = type { ptr, ptr, ptr, %class.vector.40, %class.vector.40, %class.ref_vector.41, %class.ref_vector, %class.svector.10, %class.symbol, %class.ref.46, %class.ref.46, %class.svector.12, %class.ref_vector_core.37 }
%class.vector.40 = type { ptr }
%class.ref_vector.41 = type { %class.ref_vector_core.42 }
%class.ref_vector_core.42 = type { %class.ref_manager_wrapper.43, %class.ptr_vector.44 }
%class.ref_manager_wrapper.43 = type { ptr }
%class.ptr_vector.44 = type { %class.vector.45 }
%class.vector.45 = type { ptr }
%class.svector.10 = type { %class.vector.11 }
%class.vector.11 = type { ptr }
%class.map.47 = type { %class.table2map.48 }
%class.table2map.48 = type { %class.core_hashtable.49 }
%class.core_hashtable.49 = type <{ ptr, i32, i32, i32, [4 x i8] }>
%class.ref.46 = type { ptr }
%class.ref = type { ptr }
%class.ref.51 = type { ptr }
%class.ref_vector_core.37 = type { %class.ptr_vector.38 }
%class.ptr_vector.38 = type { %class.vector.39 }
%class.vector.39 = type { ptr }
%class.obj_map.52 = type { %class.core_hashtable.53 }
%class.core_hashtable.53 = type <{ ptr, i32, i32, i32, [4 x i8] }>
%class.obj_map.57 = type { %class.core_hashtable.58 }
%class.core_hashtable.58 = type <{ ptr, i32, i32, i32, [4 x i8] }>
%class.ref_vector.62 = type { %class.ref_vector_core.63 }
%class.ref_vector_core.63 = type { %class.ref_manager_wrapper.64, %class.ptr_vector.65 }
%class.ref_manager_wrapper.64 = type { ptr }
%class.ptr_vector.65 = type { %class.vector.66 }
%class.vector.66 = type { ptr }
%class.ref.67 = type { ptr }
%class.svector.12 = type { %class.vector.13 }
%class.vector.13 = type { ptr }
%struct._key_data = type { %class.symbol, ptr }

; Function Attrs: mustprogress nounwind uwtable
define linkonce_odr hidden void @_ZN9_key_dataI6symbolPN3opt6maxsmtEEC2ERKS0_RKS3_(ptr noundef nonnull align 8 dereferenceable(16) %this, ptr noundef nonnull align 8 dereferenceable(8) %k, ptr noundef nonnull align 8 dereferenceable(8) %v) unnamed_addr #4 comdat align 2 {
entry:
  %this.addr = alloca ptr, align 8
  %k.addr = alloca ptr, align 8
  %v.addr = alloca ptr, align 8
  store ptr %this, ptr %this.addr, align 8
  store ptr %k, ptr %k.addr, align 8
  store ptr %v, ptr %v.addr, align 8
  %this1 = load ptr, ptr %this.addr, align 8
  %m_key = getelementptr inbounds %struct._key_data, ptr %this1, i32 0, i32 0
  %0 = load ptr, ptr %k.addr, align 8
  call void @llvm.memcpy.p0.p0.i64(ptr align 8 %m_key, ptr align 8 %0, i64 8, i1 false)
  %m_value = getelementptr inbounds %struct._key_data, ptr %this1, i32 0, i32 1
  %1 = load ptr, ptr %v.addr, align 8
  %2 = load ptr, ptr %1, align 8
  store ptr %2, ptr %m_value, align 8
  ret void
}

; Function Attrs: mustprogress uwtable
define linkonce_odr hidden void @_ZN9table2mapI17default_map_entryI6symbolPN3opt6maxsmtEE16symbol_hash_proc14symbol_eq_procE6insertERKS1_RKS4_(ptr noundef nonnull align 8 dereferenceable(24) %this, ptr noundef nonnull align 8 dereferenceable(8) %k, ptr noundef nonnull align 8 dereferenceable(8) %v) #5 comdat align 2 {
entry:
  %this.addr = alloca ptr, align 8
  %k.addr = alloca ptr, align 8
  %v.addr = alloca ptr, align 8
  %ref.tmp = alloca %struct._key_data, align 8
  store ptr %this, ptr %this.addr, align 8
  store ptr %k, ptr %k.addr, align 8
  store ptr %v, ptr %v.addr, align 8
  %this1 = load ptr, ptr %this.addr, align 8
  %m_table = getelementptr inbounds %class.table2map.48, ptr %this1, i32 0, i32 0
  %0 = load ptr, ptr %k.addr, align 8
  %1 = load ptr, ptr %v.addr, align 8
  call void @_ZN9_key_dataI6symbolPN3opt6maxsmtEEC2ERKS0_RKS3_(ptr noundef nonnull align 8 dereferenceable(16) %ref.tmp, ptr noundef nonnull align 8 dereferenceable(8) %0, ptr noundef nonnull align 8 dereferenceable(8) %1)
  call void @_ZN14core_hashtableI17default_map_entryI6symbolPN3opt6maxsmtEEN9table2mapIS5_16symbol_hash_proc14symbol_eq_procE15entry_hash_procENS9_13entry_eq_procEE6insertEO9_key_dataIS1_S4_E(ptr noundef nonnull align 8 dereferenceable(20) %m_table, ptr noundef nonnull align 8 dereferenceable(16) %ref.tmp)
  ret void
}

; Function Attrs: mustprogress uwtable
define hidden void @_ZN3opt7context10add_maxsmtERK6symbolj(ptr noundef nonnull align 8 dereferenceable(792) %this, ptr noundef nonnull align 8 dereferenceable(8) %id, i32 noundef %index) #5 align 2 {
entry:
  %this.addr = alloca ptr, align 8
  %id.addr = alloca ptr, align 8
  %index.addr = alloca i32, align 4
  %ms = alloca ptr, align 8
  store ptr %this, ptr %this.addr, align 8
  store ptr %id, ptr %id.addr, align 8
  store i32 %index, ptr %index.addr, align 4
  %this1 = load ptr, ptr %this.addr, align 8
  %call = call noalias noundef ptr @_ZN6memory8allocateEm(i64 noundef 168)
  %add.ptr = getelementptr inbounds i8, ptr %this1, i64 80
  %0 = load i32, ptr %index.addr, align 4
  call void @_ZN3opt6maxsmtC1ERNS_14maxsat_contextEj(ptr noundef nonnull align 8 dereferenceable(168) %call, ptr noundef nonnull align 8 dereferenceable(8) %add.ptr, i32 noundef %0)
  store ptr %call, ptr %ms, align 8
  %1 = load ptr, ptr %ms, align 8
  %m_params = getelementptr inbounds %"class.opt::context", ptr %this1, i32 0, i32 18
  call void @_ZN3opt6maxsmt11updt_paramsER10params_ref(ptr noundef nonnull align 8 dereferenceable(168) %1, ptr noundef nonnull align 8 dereferenceable(8) %m_params)
  %m_maxsmts = getelementptr inbounds %"class.opt::context", ptr %this1, i32 0, i32 20
  %2 = load ptr, ptr %id.addr, align 8
  call void @_ZN9table2mapI17default_map_entryI6symbolPN3opt6maxsmtEE16symbol_hash_proc14symbol_eq_procE6insertERKS1_RKS4_(ptr noundef nonnull align 8 dereferenceable(24) %m_maxsmts, ptr noundef nonnull align 8 dereferenceable(8) %2, ptr noundef nonnull align 8 dereferenceable(8) %ms)
  ret void
}