; Function Attrs: mustprogress uwtable
define hidden void @_ZN3opt7context10add_maxsmtERK6symbolj(ptr noundef nonnull align 8 dereferenceable(792) %this, ptr nocapture noundef nonnull readonly align 8 dereferenceable(8) %id, i32 noundef %index) local_unnamed_addr #3 align 2 {
entry:
  %ref.tmp.i = alloca %struct._key_data, align 8
  %call = tail call noalias noundef ptr @_ZN6memory8allocateEm(i64 noundef 168)
  %add.ptr = getelementptr inbounds i8, ptr %this, i64 80
  tail call void @_ZN3opt6maxsmtC1ERNS_14maxsat_contextEj(ptr noundef nonnull align 8 dereferenceable(168) %call, ptr noundef nonnull align 8 dereferenceable(8) %add.ptr, i32 noundef %index)
  %m_params = getelementptr inbounds i8, ptr %this, i64 288
  tail call void @_ZN3opt6maxsmt11updt_paramsER10params_ref(ptr noundef nonnull align 8 dereferenceable(168) %call, ptr noundef nonnull align 8 dereferenceable(8) %m_params)
  %m_maxsmts = getelementptr inbounds i8, ptr %this, i64 416
  call void @llvm.lifetime.start.p0(i64 16, ptr nonnull %ref.tmp.i)
  %0 = load i64, ptr %id, align 8
  store i64 %0, ptr %ref.tmp.i, align 8
  %m_value.i.i = getelementptr inbounds i8, ptr %ref.tmp.i, i64 8
  store ptr %call, ptr %m_value.i.i, align 8
  call void @_ZN14core_hashtableI17default_map_entryI6symbolPN3opt6maxsmtEEN9table2mapIS5_16symbol_hash_proc14symbol_eq_procE15entry_hash_procENS9_13entry_eq_procEE6insertEO9_key_dataIS1_S4_E(ptr noundef nonnull align 8 dereferenceable(20) %m_maxsmts, ptr noundef nonnull align 8 dereferenceable(16) %ref.tmp.i)
  call void @llvm.lifetime.end.p0(i64 16, ptr nonnull %ref.tmp.i)
  ret void
}